ccopy_reg
_reconstructor
p0
(cnltk.classify.naivebayes
NaiveBayesClassifier
p1
c__builtin__
object
p2
Ntp3
Rp4
(dp5
S'_labels'
p6
(lp7
S'negative'
p8
aS'positive'
p9
asS'_feature_probdist'
p10
(dp11
(g8
S'c'
p12
tp13
g0
(cnltk.probability
ELEProbDist
p14
g2
Ntp15
Rp16
(dp17
S'_gamma'
p18
F0.5
sS'_N'
p19
I800
sS'_freqdist'
p20
g0
(cnltk.probability
FreqDist
p21
c__builtin__
dict
p22
(dp23
I00
I407
sNI393
stp24
Rp25
(dp26
g19
I800
sS'_max_cache'
p27
NsS'_item_cache'
p28
NsS'_Nr_cache'
p29
NsbsS'_bins'
p30
I2
sS'_divisor'
p31
F801.0
sbs(g8
S'i'
p32
tp33
g0
(g14
g2
Ntp34
Rp35
(dp36
g18
F0.5
sg19
I800
sg20
g0
(g21
g22
(dp37
I00
I395
sNI405
stp38
Rp39
(dp40
g19
I800
sg27
Nsg28
Nsg29
Nsbsg30
I2
sg31
F801.0
sbs(g9
S'u'
p41
tp42
g0
(g14
g2
Ntp43
Rp44
(dp45
g18
F0.5
sg19
I800
sg20
g0
(g21
g22
(dp46
I00
I191
sNI609
stp47
Rp48
(dp49
g19
I800
sg27
Nsg28
Nsg29
Nsbsg30
I2
sg31
F801.0
sbs(g8
S'n'
p50
tp51
g0
(g14
g2
Ntp52
Rp53
(dp54
g18
F0.5
sg19
I800
sg20
g0
(g21
g22
(dp55
I00
I360
sNI440
stp56
Rp57
(dp58
g19
I800
sg27
Nsg28
Nsg29
Nsbsg30
I2
sg31
F801.0
sbs(g8
g41
tp59
g0
(g14
g2
Ntp60
Rp61
(dp62
g18
F0.5
sg19
I800
sg20
g0
(g21
g22
(dp63
I00
I223
sNI577
stp64
Rp65
(dp66
g19
I800
sg27
Nsg28
Nsg29
Nsbsg30
I2
sg31
F801.0
sbs(g8
S'd'
p67
tp68
g0
(g14
g2
Ntp69
Rp70
(dp71
g18
F0.5
sg19
I800
sg20
g0
(g21
g22
(dp72
I00
I180
sNI620
stp73
Rp74
(dp75
g19
I800
sg27
Nsg28
Nsg29
Nsbsg30
I2
sg31
F801.0
sbs(g8
S'g'
p76
tp77
g0
(g14
g2
Ntp78
Rp79
(dp80
g18
F0.5
sg19
I800
sg20
g0
(g21
g22
(dp81
I00
I144
sNI656
stp82
Rp83
(dp84
g19
I800
sg27
Nsg28
Nsg29
Nsbsg30
I2
sg31
F801.0
sbs(g9
S'q'
p85
tp86
g0
(g14
g2
Ntp87
Rp88
(dp89
g18
F0.5
sg19
I800
sg20
g0
(g21
g22
(dp90
I00
I7
sNI793
stp91
Rp92
(dp93
g19
I800
sg27
Nsg28
Nsg29
Nsbsg30
I2
sg31
F801.0
sbs(g8
S'r'
p94
tp95
g0
(g14
g2
Ntp96
Rp97
(dp98
g18
F0.5
sg19
I800
sg20
g0
(g21
g22
(dp99
I00
I384
sNI416
stp100
Rp101
(dp102
g19
I800
sg27
Nsg28
Nsg29
Nsbsg30
I2
sg31
F801.0
sbs(g9
S'o'
p103
tp104
g0
(g14
g2
Ntp105
Rp106
(dp107
g18
F0.5
sg19
I800
sg20
g0
(g21
g22
(dp108
I00
I290
sNI510
stp109
Rp110
(dp111
g19
I800
sg27
Nsg28
Nsg29
Nsbsg30
I2
sg31
F801.0
sbs(g8
S'z'
p112
tp113
g0
(g14
g2
Ntp114
Rp115
(dp116
g18
F0.5
sg19
I800
sg20
g0
(g21
g22
(dp117
I00
I24
sNI776
stp118
Rp119
(dp120
g19
I800
sg27
Nsg28
Nsg29
Nsbsg30
I2
sg31
F801.0
sbs(g9
g76
tp121
g0
(g14
g2
Ntp122
Rp123
(dp124
g18
F0.5
sg19
I800
sg20
g0
(g21
g22
(dp125
I00
I159
sNI641
stp126
Rp127
(dp128
g19
I800
sg27
Nsg28
Nsg29
Nsbsg30
I2
sg31
F801.0
sbs(g9
S'\r'
p129
tp130
g0
(g14
g2
Ntp131
Rp132
(dp133
g18
F0.5
sg19
I800
sg20
g0
(g21
g22
(dp134
I00
I800
stp135
Rp136
(dp137
g19
I800
sg27
Nsg28
Nsg29
Nsbsg30
I2
sg31
F801.0
sbs(g9
S'l'
p138
tp139
g0
(g14
g2
Ntp140
Rp141
(dp142
g18
F0.5
sg19
I800
sg20
g0
(g21
g22
(dp143
I00
I366
sNI434
stp144
Rp145
(dp146
g19
I800
sg27
Nsg28
Nsg29
Nsbsg30
I2
sg31
F801.0
sbs(g8
S'-'
p147
tp148
g0
(g14
g2
Ntp149
Rp150
(dp151
g18
F0.5
sg19
I800
sg20
g0
(g21
g22
(dp152
I00
I22
sNI778
stp153
Rp154
(dp155
g19
I800
sg27
Nsg28
Nsg29
Nsbsg30
I2
sg31
F801.0
sbs(g9
g112
tp156
g0
(g14
g2
Ntp157
Rp158
(dp159
g18
F0.5
sg19
I800
sg20
g0
(g21
g22
(dp160
I00
I15
sNI785
stp161
Rp162
(dp163
g19
I800
sg27
Nsg28
Nsg29
Nsbsg30
I2
sg31
F801.0
sbs(g8
S'y'
p164
tp165
g0
(g14
g2
Ntp166
Rp167
(dp168
g18
F0.5
sg19
I800
sg20
g0
(g21
g22
(dp169
I00
I149
sNI651
stp170
Rp171
(dp172
g19
I800
sg27
Nsg28
Nsg29
Nsbsg30
I2
sg31
F801.0
sbs(g8
g103
tp173
g0
(g14
g2
Ntp174
Rp175
(dp176
g18
F0.5
sg19
I800
sg20
g0
(g21
g22
(dp177
I00
I315
sNI485
stp178
Rp179
(dp180
g19
I800
sg27
Nsg28
Nsg29
Nsbsg30
I2
sg31
F801.0
sbs(g8
S'k'
p181
tp182
g0
(g14
g2
Ntp183
Rp184
(dp185
g18
F0.5
sg19
I800
sg20
g0
(g21
g22
(dp186
I00
I62
sNI738
stp187
Rp188
(dp189
g19
I800
sg27
Nsg28
Nsg29
Nsbsg30
I2
sg31
F801.0
sbs(g9
S'h'
p190
tp191
g0
(g14
g2
Ntp192
Rp193
(dp194
g18
F0.5
sg19
I800
sg20
g0
(g21
g22
(dp195
I00
I117
sNI683
stp196
Rp197
(dp198
g19
I800
sg27
Nsg28
Nsg29
Nsbsg30
I2
sg31
F801.0
sbs(g9
S'v'
p199
tp200
g0
(g14
g2
Ntp201
Rp202
(dp203
g18
F0.5
sg19
I800
sg20
g0
(g21
g22
(dp204
I00
I108
sNI692
stp205
Rp206
(dp207
g19
I800
sg27
Nsg28
Nsg29
Nsbsg30
I2
sg31
F801.0
sbs(g9
S'\n'
p208
tp209
g0
(g14
g2
Ntp210
Rp211
(dp212
g18
F0.5
sg19
I800
sg20
g0
(g21
g22
(dp213
I00
I800
stp214
Rp215
(dp216
g19
I800
sg27
Nsg28
Nsg29
Nsbsg30
I2
sg31
F801.0
sbs(g9
S'*'
p217
tp218
g0
(g14
g2
Ntp219
Rp220
(dp221
g18
F0.5
sg19
I800
sg20
g0
(g21
g22
(dp222
NI800
stp223
Rp224
(dp225
g19
I800
sg27
Nsg28
Nsg29
Nsbsg30
I2
sg31
F801.0
sbs(g8
S's'
p226
tp227
g0
(g14
g2
Ntp228
Rp229
(dp230
g18
F0.5
sg19
I800
sg20
g0
(g21
g22
(dp231
I00
I330
sNI470
stp232
Rp233
(dp234
g19
I800
sg27
Nsg28
Nsg29
Nsbsg30
I2
sg31
F801.0
sbs(g8
g190
tp235
g0
(g14
g2
Ntp236
Rp237
(dp238
g18
F0.5
sg19
I800
sg20
g0
(g21
g22
(dp239
I00
I128
sNI672
stp240
Rp241
(dp242
g19
I800
sg27
Nsg28
Nsg29
Nsbsg30
I2
sg31
F801.0
sbs(g9
g94
tp243
g0
(g14
g2
Ntp244
Rp245
(dp246
g18
F0.5
sg19
I800
sg20
g0
(g21
g22
(dp247
I00
I315
sNI485
stp248
Rp249
(dp250
g19
I800
sg27
Nsg28
Nsg29
Nsbsg30
I2
sg31
F801.0
sbs(g8
S'e'
p251
tp252
g0
(g14
g2
Ntp253
Rp254
(dp255
g18
F0.5
sg19
I800
sg20
g0
(g21
g22
(dp256
I00
I441
sNI359
stp257
Rp258
(dp259
g19
I800
sg27
Nsg28
Nsg29
Nsbsg30
I2
sg31
F801.0
sbs(g8
S'a'
p260
tp261
g0
(g14
g2
Ntp262
Rp263
(dp264
g18
F0.5
sg19
I800
sg20
g0
(g21
g22
(dp265
I00
I496
sNI304
stp266
Rp267
(dp268
g19
I800
sg27
Nsg28
Nsg29
Nsbsg30
I2
sg31
F801.0
sbs(g8
g217
tp269
g0
(g14
g2
Ntp270
Rp271
(dp272
g18
F0.5
sg19
I800
sg20
g0
(g21
g22
(dp273
I00
I1
sNI799
stp274
Rp275
(dp276
g19
I800
sg27
Nsg28
Nsg29
Nsbsg30
I2
sg31
F801.0
sbs(g8
S'w'
p277
tp278
g0
(g14
g2
Ntp279
Rp280
(dp281
g18
F0.5
sg19
I800
sg20
g0
(g21
g22
(dp282
I00
I31
sNI769
stp283
Rp284
(dp285
g19
I800
sg27
Nsg28
Nsg29
Nsbsg30
I2
sg31
F801.0
sbs(g8
g129
tp286
g0
(g14
g2
Ntp287
Rp288
(dp289
g18
F0.5
sg19
I800
sg20
g0
(g21
g22
(dp290
I00
I800
stp291
Rp292
(dp293
g19
I800
sg27
Nsg28
Nsg29
Nsbsg30
I2
sg31
F801.0
sbs(g9
S'b'
p294
tp295
g0
(g14
g2
Ntp296
Rp297
(dp298
g18
F0.5
sg19
I800
sg20
g0
(g21
g22
(dp299
I00
I162
sNI638
stp300
Rp301
(dp302
g19
I800
sg27
Nsg28
Nsg29
Nsbsg30
I2
sg31
F801.0
sbs(g8
g138
tp303
g0
(g14
g2
Ntp304
Rp305
(dp306
g18
F0.5
sg19
I800
sg20
g0
(g21
g22
(dp307
I00
I312
sNI488
stp308
Rp309
(dp310
g19
I800
sg27
Nsg28
Nsg29
Nsbsg30
I2
sg31
F801.0
sbs(g9
g32
tp311
g0
(g14
g2
Ntp312
Rp313
(dp314
g18
F0.5
sg19
I800
sg20
g0
(g21
g22
(dp315
I00
I418
sNI382
stp316
Rp317
(dp318
g19
I800
sg27
Nsg28
Nsg29
Nsbsg30
I2
sg31
F801.0
sbs(g9
g277
tp319
g0
(g14
g2
Ntp320
Rp321
(dp322
g18
F0.5
sg19
I800
sg20
g0
(g21
g22
(dp323
I00
I21
sNI779
stp324
Rp325
(dp326
g19
I800
sg27
Nsg28
Nsg29
Nsbsg30
I2
sg31
F801.0
sbs(g8
S'm'
p327
tp328
g0
(g14
g2
Ntp329
Rp330
(dp331
g18
F0.5
sg19
I800
sg20
g0
(g21
g22
(dp332
I00
I141
sNI659
stp333
Rp334
(dp335
g19
I800
sg27
Nsg28
Nsg29
Nsbsg30
I2
sg31
F801.0
sbs(g9
S'+'
p336
tp337
g0
(g14
g2
Ntp338
Rp339
(dp340
g18
F0.5
sg19
I800
sg20
g0
(g21
g22
(dp341
I00
I1
sNI799
stp342
Rp343
(dp344
g19
I800
sg27
Nsg28
Nsg29
Nsbsg30
I2
sg31
F801.0
sbs(g8
S'p'
p345
tp346
g0
(g14
g2
Ntp347
Rp348
(dp349
g18
F0.5
sg19
I800
sg20
g0
(g21
g22
(dp350
I00
I111
sNI689
stp351
Rp352
(dp353
g19
I800
sg27
Nsg28
Nsg29
Nsbsg30
I2
sg31
F801.0
sbs(g8
g199
tp354
g0
(g14
g2
Ntp355
Rp356
(dp357
g18
F0.5
sg19
I800
sg20
g0
(g21
g22
(dp358
I00
I47
sNI753
stp359
Rp360
(dp361
g19
I800
sg27
Nsg28
Nsg29
Nsbsg30
I2
sg31
F801.0
sbs(g9
g251
tp362
g0
(g14
g2
Ntp363
Rp364
(dp365
g18
F0.5
sg19
I800
sg20
g0
(g21
g22
(dp366
I00
I609
sNI191
stp367
Rp368
(dp369
g19
I800
sg27
Nsg28
Nsg29
Nsbsg30
I2
sg31
F801.0
sbs(g8
S'2'
p370
tp371
g0
(g14
g2
Ntp372
Rp373
(dp374
g18
F0.5
sg19
I800
sg20
g0
(g21
g22
(dp375
I00
I2
sNI798
stp376
Rp377
(dp378
g19
I800
sg27
Nsg28
Nsg29
Nsbsg30
I2
sg31
F801.0
sbs(g9
g226
tp379
g0
(g14
g2
Ntp380
Rp381
(dp382
g18
F0.5
sg19
I800
sg20
g0
(g21
g22
(dp383
I00
I258
sNI542
stp384
Rp385
(dp386
g19
I800
sg27
Nsg28
Nsg29
Nsbsg30
I2
sg31
F801.0
sbs(g8
g336
tp387
g0
(g14
g2
Ntp388
Rp389
(dp390
g18
F0.5
sg19
I800
sg20
g0
(g21
g22
(dp391
NI800
stp392
Rp393
(dp394
g19
I800
sg27
Nsg28
Nsg29
Nsbsg30
I2
sg31
F801.0
sbs(g9
S'x'
p395
tp396
g0
(g14
g2
Ntp397
Rp398
(dp399
g18
F0.5
sg19
I800
sg20
g0
(g21
g22
(dp400
I00
I64
sNI736
stp401
Rp402
(dp403
g19
I800
sg27
Nsg28
Nsg29
Nsbsg30
I2
sg31
F801.0
sbs(g8
g208
tp404
g0
(g14
g2
Ntp405
Rp406
(dp407
g18
F0.5
sg19
I800
sg20
g0
(g21
g22
(dp408
I00
I800
stp409
Rp410
(dp411
g19
I800
sg27
Nsg28
Nsg29
Nsbsg30
I2
sg31
F801.0
sbs(g9
g181
tp412
g0
(g14
g2
Ntp413
Rp414
(dp415
g18
F0.5
sg19
I800
sg20
g0
(g21
g22
(dp416
I00
I23
sNI777
stp417
Rp418
(dp419
g19
I800
sg27
Nsg28
Nsg29
Nsbsg30
I2
sg31
F801.0
sbs(g9
g260
tp420
g0
(g14
g2
Ntp421
Rp422
(dp423
g18
F0.5
sg19
I800
sg20
g0
(g21
g22
(dp424
I00
I498
sNI302
stp425
Rp426
(dp427
g19
I800
sg27
Nsg28
Nsg29
Nsbsg30
I2
sg31
F801.0
sbs(g9
S't'
p428
tp429
g0
(g14
g2
Ntp430
Rp431
(dp432
g18
F0.5
sg19
I800
sg20
g0
(g21
g22
(dp433
I00
I408
sNI392
stp434
Rp435
(dp436
g19
I800
sg27
Nsg28
Nsg29
Nsbsg30
I2
sg31
F801.0
sbs(g8
g294
tp437
g0
(g14
g2
Ntp438
Rp439
(dp440
g18
F0.5
sg19
I800
sg20
g0
(g21
g22
(dp441
I00
I317
sNI483
stp442
Rp443
(dp444
g19
I800
sg27
Nsg28
Nsg29
Nsbsg30
I2
sg31
F801.0
sbs(g8
g395
tp445
g0
(g14
g2
Ntp446
Rp447
(dp448
g18
F0.5
sg19
I800
sg20
g0
(g21
g22
(dp449
I00
I8
sNI792
stp450
Rp451
(dp452
g19
I800
sg27
Nsg28
Nsg29
Nsbsg30
I2
sg31
F801.0
sbs(g9
g67
tp453
g0
(g14
g2
Ntp454
Rp455
(dp456
g18
F0.5
sg19
I800
sg20
g0
(g21
g22
(dp457
I00
I214
sNI586
stp458
Rp459
(dp460
g19
I800
sg27
Nsg28
Nsg29
Nsbsg30
I2
sg31
F801.0
sbs(g9
g50
tp461
g0
(g14
g2
Ntp462
Rp463
(dp464
g18
F0.5
sg19
I800
sg20
g0
(g21
g22
(dp465
I00
I401
sNI399
stp466
Rp467
(dp468
g19
I800
sg27
Nsg28
Nsg29
Nsbsg30
I2
sg31
F801.0
sbs(g8
g85
tp469
g0
(g14
g2
Ntp470
Rp471
(dp472
g18
F0.5
sg19
I800
sg20
g0
(g21
g22
(dp473
I00
I3
sNI797
stp474
Rp475
(dp476
g19
I800
sg27
Nsg28
Nsg29
Nsbsg30
I2
sg31
F801.0
sbs(g9
g12
tp477
g0
(g14
g2
Ntp478
Rp479
(dp480
g18
F0.5
sg19
I800
sg20
g0
(g21
g22
(dp481
I00
I326
sNI474
stp482
Rp483
(dp484
g19
I800
sg27
Nsg28
Nsg29
Nsbsg30
I2
sg31
F801.0
sbs(g9
S'f'
p485
tp486
g0
(g14
g2
Ntp487
Rp488
(dp489
g18
F0.5
sg19
I800
sg20
g0
(g21
g22
(dp490
I00
I195
sNI605
stp491
Rp492
(dp493
g19
I800
sg27
Nsg28
Nsg29
Nsbsg30
I2
sg31
F801.0
sbs(g9
S'j'
p494
tp495
g0
(g14
g2
Ntp496
Rp497
(dp498
g18
F0.5
sg19
I800
sg20
g0
(g21
g22
(dp499
I00
I9
sNI791
stp500
Rp501
(dp502
g19
I800
sg27
Nsg28
Nsg29
Nsbsg30
I2
sg31
F801.0
sbs(g9
g345
tp503
g0
(g14
g2
Ntp504
Rp505
(dp506
g18
F0.5
sg19
I800
sg20
g0
(g21
g22
(dp507
I00
I82
sNI718
stp508
Rp509
(dp510
g19
I800
sg27
Nsg28
Nsg29
Nsbsg30
I2
sg31
F801.0
sbs(g8
g428
tp511
g0
(g14
g2
Ntp512
Rp513
(dp514
g18
F0.5
sg19
I800
sg20
g0
(g21
g22
(dp515
I00
I304
sNI496
stp516
Rp517
(dp518
g19
I800
sg27
Nsg28
Nsg29
Nsbsg30
I2
sg31
F801.0
sbs(g8
g485
tp519
g0
(g14
g2
Ntp520
Rp521
(dp522
g18
F0.5
sg19
I800
sg20
g0
(g21
g22
(dp523
I00
I46
sNI754
stp524
Rp525
(dp526
g19
I800
sg27
Nsg28
Nsg29
Nsbsg30
I2
sg31
F801.0
sbs(g9
g327
tp527
g0
(g14
g2
Ntp528
Rp529
(dp530
g18
F0.5
sg19
I800
sg20
g0
(g21
g22
(dp531
I00
I138
sNI662
stp532
Rp533
(dp534
g19
I800
sg27
Nsg28
Nsg29
Nsbsg30
I2
sg31
F801.0
sbs(g9
g164
tp535
g0
(g14
g2
Ntp536
Rp537
(dp538
g18
F0.5
sg19
I800
sg20
g0
(g21
g22
(dp539
I00
I189
sNI611
stp540
Rp541
(dp542
g19
I800
sg27
Nsg28
Nsg29
Nsbsg30
I2
sg31
F801.0
sbs(g9
g370
tp543
g0
(g14
g2
Ntp544
Rp545
(dp546
g18
F0.5
sg19
I800
sg20
g0
(g21
g22
(dp547
NI800
stp548
Rp549
(dp550
g19
I800
sg27
Nsg28
Nsg29
Nsbsg30
I2
sg31
F801.0
sbs(g9
g147
tp551
g0
(g14
g2
Ntp552
Rp553
(dp554
g18
F0.5
sg19
I800
sg20
g0
(g21
g22
(dp555
I00
I31
sNI769
stp556
Rp557
(dp558
g19
I800
sg27
Nsg28
Nsg29
Nsbsg30
I2
sg31
F801.0
sbs(g8
g494
tp559
g0
(g14
g2
Ntp560
Rp561
(dp562
g18
F0.5
sg19
I800
sg20
g0
(g21
g22
(dp563
NI800
stp564
Rp565
(dp566
g19
I800
sg27
Nsg28
Nsg29
Nsbsg30
I2
sg31
F801.0
sbssS'_label_probdist'
p567
g0
(g14
g2
Ntp568
Rp569
(dp570
g18
F0.5
sg19
I1600
sg20
g0
(g21
g22
(dp571
g9
I800
sg8
I800
stp572
Rp573
(dp574
g19
I1600
sg27
Nsg28
(lp575
(g8
I800
tp576
a(g9
I800
tp577
asg29
Nsbsg30
I2
sg31
F1601.0
sbsb.